; Function Attrs: mustprogress uwtable
define noundef nonnull ptr @_ZNK5faiss14IndexFlatCodes14get_CodePackerEv(ptr nocapture noundef nonnull readonly align 8 dereferenceable(72) %0) local_unnamed_addr #2 align 2 personality ptr @__gxx_personality_v0 {
  %2 = tail call noalias noundef nonnull dereferenceable(32) ptr @_Znwm(i64 noundef 32) #24
  %3 = getelementptr inbounds i8, ptr %0, i64 40
  %4 = load i64, ptr %3, align 8
  invoke void @_ZN5faiss14CodePackerFlatC1Em(ptr noundef nonnull align 8 dereferenceable(32) %2, i64 noundef %4)
          to label %5 unwind label %6

5:                                                ; preds = %1
  ret ptr %2

6:                                                ; preds = %1
  %7 = landingpad { ptr, i32 }
          cleanup
  tail call void @_ZdlPv(ptr noundef nonnull %2) #20
  resume { ptr, i32 } %7
}